; Function Attrs: nounwind uwtable
define i32 @ssl3_write(ptr noundef %0, ptr noundef %1, i64 noundef %2, ptr noundef %3) local_unnamed_addr #4 {
  %5 = icmp eq ptr %0, null
  br i1 %5, label %.thread, label %6

6:                                                ; preds = %4
  %7 = load i32, ptr %0, align 8, !tbaa !10
  %8 = icmp eq i32 %7, 0
  br i1 %8, label %9, label %.thread

9:                                                ; preds = %6
  %10 = tail call ptr @__errno_location() #20
  store i32 0, ptr %10, align 4, !tbaa !131
  %11 = getelementptr inbounds nuw i8, ptr %0, i64 460
  %12 = load i32, ptr %11, align 4, !tbaa !230
  %.not = icmp eq i32 %12, 0
  br i1 %.not, label %ssl3_renegotiate_check.exit, label %13

13:                                               ; preds = %9
  %14 = load i32, ptr %0, align 8, !tbaa !10
  %15 = icmp eq i32 %14, 0
  br i1 %15, label %16, label %ssl3_renegotiate_check.exit

16:                                               ; preds = %13
  %17 = getelementptr inbounds nuw i8, ptr %0, i64 3160
  %18 = tail call i32 @RECORD_LAYER_read_pending(ptr noundef nonnull %17) #18
  %.not17.i = icmp eq i32 %18, 0
  br i1 %.not17.i, label %19, label %ssl3_renegotiate_check.exit

19:                                               ; preds = %16
  %20 = tail call i32 @RECORD_LAYER_write_pending(ptr noundef nonnull %17) #18
  %.not18.i = icmp eq i32 %20, 0
  br i1 %.not18.i, label %21, label %ssl3_renegotiate_check.exit

21:                                               ; preds = %19
  %22 = tail call i32 @SSL_in_init(ptr noundef nonnull %0) #18
  %.not20.i = icmp eq i32 %22, 0
  br i1 %.not20.i, label %23, label %ssl3_renegotiate_check.exit

23:                                               ; preds = %21
  tail call void @ossl_statem_set_renegotiate(ptr noundef nonnull %0) #18
  store i32 0, ptr %11, align 4, !tbaa !230
  %24 = getelementptr inbounds nuw i8, ptr %0, i64 468
  %25 = load i32, ptr %24, align 4, !tbaa !99
  %26 = add nsw i32 %25, 1
  store i32 %26, ptr %24, align 4, !tbaa !99
  %27 = getelementptr inbounds nuw i8, ptr %0, i64 464
  %28 = load i32, ptr %27, align 8, !tbaa !100
  %29 = add nsw i32 %28, 1
  store i32 %29, ptr %27, align 8, !tbaa !100
  br label %ssl3_renegotiate_check.exit

ssl3_renegotiate_check.exit:                      ; preds = %23, %21, %19, %16, %13, %9
  %30 = getelementptr inbounds nuw i8, ptr %0, i64 24
  %31 = load ptr, ptr %30, align 8, !tbaa !18
  %32 = getelementptr inbounds nuw i8, ptr %31, i64 136
  %33 = load ptr, ptr %32, align 8, !tbaa !231
  %34 = tail call i32 %33(ptr noundef nonnull %0, i8 noundef zeroext 23, ptr noundef %1, i64 noundef %2, ptr noundef %3) #18
  br label %.thread

.thread:                                          ; preds = %4, %6, %ssl3_renegotiate_check.exit
  %.0 = phi i32 [ %34, %ssl3_renegotiate_check.exit ], [ 0, %6 ], [ 0, %4 ]
  ret i32 %.0
}